; Function Attrs: mustprogress ssp uwtable
define void @_ZN6open3d4core17DynamicSizeVectorC2ERKSt6vectorINS_7utility8optionalIlEESaIS5_EE(ptr noundef nonnull align 8 dereferenceable(80) %0, ptr noundef nonnull readonly align 8 captures(none) dereferenceable(24) %1) unnamed_addr #0 align 2 personality ptr @__gxx_personality_v0 {
  %3 = load ptr, ptr %1, align 8, !tbaa !4
  %4 = getelementptr inbounds nuw i8, ptr %1, i64 8
  %5 = load ptr, ptr %4, align 8, !tbaa !4
  %6 = getelementptr inbounds nuw i8, ptr %0, i64 16
  store ptr %6, ptr %0, align 8, !tbaa !11
  %7 = getelementptr inbounds nuw i8, ptr %0, i64 8
  store i32 0, ptr %7, align 8, !tbaa !15
  %8 = getelementptr inbounds nuw i8, ptr %0, i64 12
  store i32 4, ptr %8, align 4, !tbaa !14
  invoke void @_ZN6open3d4core15SmallVectorImplINS_7utility8optionalIlEEE6appendIN9__gnu_cxx17__normal_iteratorIPKS4_St6vectorIS4_SaIS4_EEEEvEEvT_SF_(ptr noundef nonnull align 8 dereferenceable(80) %0, ptr %3, ptr %5)
          to label %_ZN6open3d4core11SmallVectorINS_7utility8optionalIlEELj4EEC2IN9__gnu_cxx17__normal_iteratorIPKS4_St6vectorIS4_SaIS4_EEEEvEET_SF_.exit unwind label %9

9:                                                ; preds = %2
  %10 = landingpad { ptr, i32 }
          cleanup
  %11 = load ptr, ptr %0, align 8, !tbaa !11
  %12 = icmp eq ptr %11, %6
  br i1 %12, label %_ZN6open3d4core15SmallVectorImplINS_7utility8optionalIlEEED2Ev.exit.i, label %13

13:                                               ; preds = %9
  tail call void @free(ptr noundef %11) #29
  br label %_ZN6open3d4core15SmallVectorImplINS_7utility8optionalIlEEED2Ev.exit.i

_ZN6open3d4core15SmallVectorImplINS_7utility8optionalIlEEED2Ev.exit.i: ; preds = %13, %9
  resume { ptr, i32 } %10

_ZN6open3d4core11SmallVectorINS_7utility8optionalIlEELj4EEC2IN9__gnu_cxx17__normal_iteratorIPKS4_St6vectorIS4_SaIS4_EEEEvEET_SF_.exit: ; preds = %2
  ret void
}